target datalayout = "e-m:e-p270:32:32-p271:32:32-p272:64:64-i64:64-i128:128-f80:128-n8:16:32:64-S128"
target triple = "x86_64-unknown-linux-gnu"

%class.btBvhTriangleMeshShape = type <{ %class.btTriangleMeshShape, ptr, ptr, i8, i8, [11 x i8], [3 x i8] }>
%class.btTriangleMeshShape = type { %class.btConcaveShape.base, %class.btVector3, %class.btVector3, ptr }
%class.btConcaveShape.base = type <{ %class.btCollisionShape, float }>
%class.btCollisionShape = type { ptr, i32, ptr, i32, i32 }
%class.btVector3 = type { [4 x float] }
%class.btNodeOverlapCallback = type { ptr }
%struct.MyNodeOverlapCallback.9 = type <{ %class.btNodeOverlapCallback, ptr, ptr, [3 x %class.btVector3], i32, [4 x i8] }>

@_ZTV21btNodeOverlapCallback = linkonce_odr dso_local unnamed_addr constant { [5 x ptr] } { [5 x ptr] [ptr null, ptr @_ZTI21btNodeOverlapCallback, ptr @_ZN21btNodeOverlapCallbackD2Ev, ptr @_ZN21btNodeOverlapCallbackD0Ev, ptr @__cxa_pure_virtual] }, comdat, align 8

; Function Attrs: mustprogress nounwind uwtable
define linkonce_odr dso_local void @_ZN21btNodeOverlapCallbackD2Ev(ptr noundef nonnull align 8 dereferenceable(8) %this) unnamed_addr #1 comdat align 2 {
entry:
  %this.addr = alloca ptr, align 8
  store ptr %this, ptr %this.addr, align 8
  ret void
}

; Function Attrs: mustprogress nounwind uwtable
define linkonce_odr dso_local void @_ZN9btVector3C2Ev(ptr noundef nonnull align 4 dereferenceable(16) %this) unnamed_addr #1 comdat align 2 {
entry:
  %this.addr = alloca ptr, align 8
  store ptr %this, ptr %this.addr, align 8
  ret void
}

; Function Attrs: mustprogress nounwind uwtable
define linkonce_odr dso_local void @_ZN21btNodeOverlapCallbackC2Ev(ptr noundef nonnull align 8 dereferenceable(8) %this) unnamed_addr #1 comdat align 2 {
entry:
  %this.addr = alloca ptr, align 8
  store ptr %this, ptr %this.addr, align 8
  %this1 = load ptr, ptr %this.addr, align 8
  store ptr getelementptr inbounds ({ [5 x ptr] }, ptr @_ZTV21btNodeOverlapCallback, i32 0, i32 0, i32 2), ptr %this1, align 8
  ret void
}

; Function Attrs: mustprogress nounwind uwtable
define internal void @_ZZNK22btBvhTriangleMeshShape19processAllTrianglesEP18btTriangleCallbackRK9btVector3S4_EN21MyNodeOverlapCallbackD2Ev(ptr noundef nonnull align 8 dereferenceable(76) %this) unnamed_addr #1 align 2 {
entry:
  %this.addr = alloca ptr, align 8
  store ptr %this, ptr %this.addr, align 8
  %this1 = load ptr, ptr %this.addr, align 8
  call void @_ZN21btNodeOverlapCallbackD2Ev(ptr noundef nonnull align 8 dereferenceable(8) %this1) #12
  ret void
}

; Function Attrs: mustprogress uwtable
define internal void @_ZZNK22btBvhTriangleMeshShape19processAllTrianglesEP18btTriangleCallbackRK9btVector3S4_EN21MyNodeOverlapCallbackC2ES1_P23btStridingMeshInterface(ptr noundef nonnull align 8 dereferenceable(76) %this, ptr noundef %callback, ptr noundef %meshInterface) unnamed_addr #2 align 2 personality ptr @__gxx_personality_v0 {
entry:
  %this.addr = alloca ptr, align 8
  %callback.addr = alloca ptr, align 8
  %meshInterface.addr = alloca ptr, align 8
  %exn.slot = alloca ptr, align 8
  %ehselector.slot = alloca i32, align 4
  store ptr %this, ptr %this.addr, align 8
  store ptr %callback, ptr %callback.addr, align 8
  store ptr %meshInterface, ptr %meshInterface.addr, align 8
  %this1 = load ptr, ptr %this.addr, align 8
  call void @_ZN21btNodeOverlapCallbackC2Ev(ptr noundef nonnull align 8 dereferenceable(8) %this1) #12
  store ptr getelementptr inbounds ({ [5 x ptr] }, ptr @_ZTVZNK22btBvhTriangleMeshShape19processAllTrianglesEP18btTriangleCallbackRK9btVector3S4_E21MyNodeOverlapCallback, i32 0, i32 0, i32 2), ptr %this1, align 8
  %m_meshInterface = getelementptr inbounds %struct.MyNodeOverlapCallback.9, ptr %this1, i32 0, i32 1
  %0 = load ptr, ptr %meshInterface.addr, align 8
  store ptr %0, ptr %m_meshInterface, align 8
  %m_callback = getelementptr inbounds %struct.MyNodeOverlapCallback.9, ptr %this1, i32 0, i32 2
  %1 = load ptr, ptr %callback.addr, align 8
  store ptr %1, ptr %m_callback, align 8
  %m_triangle = getelementptr inbounds %struct.MyNodeOverlapCallback.9, ptr %this1, i32 0, i32 3
  %array.begin = getelementptr inbounds [3 x %class.btVector3], ptr %m_triangle, i32 0, i32 0
  %arrayctor.end = getelementptr inbounds %class.btVector3, ptr %array.begin, i64 3
  br label %arrayctor.loop

arrayctor.loop:                                   ; preds = %invoke.cont, %entry
  %arrayctor.cur = phi ptr [ %array.begin, %entry ], [ %arrayctor.next, %invoke.cont ]
  invoke void @_ZN9btVector3C2Ev(ptr noundef nonnull align 4 dereferenceable(16) %arrayctor.cur)
          to label %invoke.cont unwind label %lpad

invoke.cont:                                      ; preds = %arrayctor.loop
  %arrayctor.next = getelementptr inbounds %class.btVector3, ptr %arrayctor.cur, i64 1
  %arrayctor.done = icmp eq ptr %arrayctor.next, %arrayctor.end
  br i1 %arrayctor.done, label %arrayctor.cont, label %arrayctor.loop

arrayctor.cont:                                   ; preds = %invoke.cont
  %m_numOverlap = getelementptr inbounds %struct.MyNodeOverlapCallback.9, ptr %this1, i32 0, i32 4
  store i32 0, ptr %m_numOverlap, align 8
  ret void

lpad:                                             ; preds = %arrayctor.loop
  %2 = landingpad { ptr, i32 }
          cleanup
  %3 = extractvalue { ptr, i32 } %2, 0
  store ptr %3, ptr %exn.slot, align 8
  %4 = extractvalue { ptr, i32 } %2, 1
  store i32 %4, ptr %ehselector.slot, align 4
  call void @_ZN21btNodeOverlapCallbackD2Ev(ptr noundef nonnull align 8 dereferenceable(8) %this1) #12
  br label %eh.resume

eh.resume:                                        ; preds = %lpad
  %exn = load ptr, ptr %exn.slot, align 8
  %sel = load i32, ptr %ehselector.slot, align 4
  %lpad.val = insertvalue { ptr, i32 } poison, ptr %exn, 0
  %lpad.val2 = insertvalue { ptr, i32 } %lpad.val, i32 %sel, 1
  resume { ptr, i32 } %lpad.val2
}

; Function Attrs: mustprogress uwtable
define dso_local void @_ZNK22btBvhTriangleMeshShape19processAllTrianglesEP18btTriangleCallbackRK9btVector3S4_(ptr noundef nonnull align 8 dereferenceable(109) %this, ptr noundef %callback, ptr noundef nonnull align 4 dereferenceable(16) %aabbMin, ptr noundef nonnull align 4 dereferenceable(16) %aabbMax) unnamed_addr #2 align 2 personality ptr @__gxx_personality_v0 {
entry:
  %this.addr = alloca ptr, align 8
  %callback.addr = alloca ptr, align 8
  %aabbMin.addr = alloca ptr, align 8
  %aabbMax.addr = alloca ptr, align 8
  %myNodeCallback = alloca %struct.MyNodeOverlapCallback.9, align 8
  %exn.slot = alloca ptr, align 8
  %ehselector.slot = alloca i32, align 4
  store ptr %this, ptr %this.addr, align 8
  store ptr %callback, ptr %callback.addr, align 8
  store ptr %aabbMin, ptr %aabbMin.addr, align 8
  store ptr %aabbMax, ptr %aabbMax.addr, align 8
  %this1 = load ptr, ptr %this.addr, align 8
  %0 = load ptr, ptr %callback.addr, align 8
  %m_meshInterface = getelementptr inbounds %class.btTriangleMeshShape, ptr %this1, i32 0, i32 3
  %1 = load ptr, ptr %m_meshInterface, align 8
  call void @_ZZNK22btBvhTriangleMeshShape19processAllTrianglesEP18btTriangleCallbackRK9btVector3S4_EN21MyNodeOverlapCallbackC2ES1_P23btStridingMeshInterface(ptr noundef nonnull align 8 dereferenceable(76) %myNodeCallback, ptr noundef %0, ptr noundef %1)
  %m_bvh = getelementptr inbounds %class.btBvhTriangleMeshShape, ptr %this1, i32 0, i32 1
  %2 = load ptr, ptr %m_bvh, align 8
  %3 = load ptr, ptr %aabbMin.addr, align 8
  %4 = load ptr, ptr %aabbMax.addr, align 8
  invoke void @_ZNK14btQuantizedBvh26reportAabbOverlappingNodexEP21btNodeOverlapCallbackRK9btVector3S4_(ptr noundef nonnull align 8 dereferenceable(244) %2, ptr noundef %myNodeCallback, ptr noundef nonnull align 4 dereferenceable(16) %3, ptr noundef nonnull align 4 dereferenceable(16) %4)
          to label %invoke.cont unwind label %lpad

invoke.cont:                                      ; preds = %entry
  call void @_ZZNK22btBvhTriangleMeshShape19processAllTrianglesEP18btTriangleCallbackRK9btVector3S4_EN21MyNodeOverlapCallbackD2Ev(ptr noundef nonnull align 8 dereferenceable(76) %myNodeCallback) #12
  ret void

lpad:                                             ; preds = %entry
  %5 = landingpad { ptr, i32 }
          cleanup
  %6 = extractvalue { ptr, i32 } %5, 0
  store ptr %6, ptr %exn.slot, align 8
  %7 = extractvalue { ptr, i32 } %5, 1
  store i32 %7, ptr %ehselector.slot, align 4
  call void @_ZZNK22btBvhTriangleMeshShape19processAllTrianglesEP18btTriangleCallbackRK9btVector3S4_EN21MyNodeOverlapCallbackD2Ev(ptr noundef nonnull align 8 dereferenceable(76) %myNodeCallback) #12
  br label %eh.resume

eh.resume:                                        ; preds = %lpad
  %exn = load ptr, ptr %exn.slot, align 8
  %sel = load i32, ptr %ehselector.slot, align 4
  %lpad.val = insertvalue { ptr, i32 } poison, ptr %exn, 0
  %lpad.val2 = insertvalue { ptr, i32 } %lpad.val, i32 %sel, 1
  resume { ptr, i32 } %lpad.val2
}